; Function Attrs: norecurse nounwind uwtable
define internal void @_ZN3gmx10PropagatorILNS_16IntegrationStageE0EE3runILNS_24NumVelocityScalingValuesE2ELNS_31ParrinelloRahmanVelocityScalingE2ELS4_2ELNS_24NumPositionScalingValuesE0EEEvv.omp_outlined(ptr noalias nocapture noundef readonly %0, ptr noalias nocapture readnone %1, ptr nocapture noundef nonnull readonly align 4 dereferenceable(4) %2, ptr nocapture noundef nonnull readonly align 4 dereferenceable(4) %3, ptr nocapture noundef readonly %4, ptr nocapture noundef nonnull readonly align 8 dereferenceable(8) %5, ptr nocapture noundef nonnull readonly align 8 dereferenceable(8) %6, ptr nocapture noundef nonnull readonly align 8 dereferenceable(8) %7) #7 personality ptr @__gxx_personality_v0 {
  %9 = alloca i32, align 4
  %10 = alloca i32, align 4
  %11 = alloca i32, align 4
  %12 = alloca i32, align 4
  %13 = alloca i32, align 4
  %14 = alloca i32, align 4
  %15 = load i32, ptr %2, align 4
  %16 = icmp sgt i32 %15, 0
  br i1 %16, label %17, label %57

17:                                               ; preds = %8
  %18 = add nsw i32 %15, -1
  store i32 0, ptr %9, align 4
  store i32 %18, ptr %10, align 4
  store i32 1, ptr %11, align 4
  store i32 0, ptr %12, align 4
  %19 = load i32, ptr %0, align 4
  call void @__kmpc_for_static_init_4(ptr nonnull @1, i32 %19, i32 34, ptr nonnull %12, ptr nonnull %9, ptr nonnull %10, ptr nonnull %11, i32 1, i32 1)
  %20 = load i32, ptr %10, align 4
  %21 = call i32 @llvm.smin.i32(i32 %20, i32 %18)
  store i32 %21, ptr %10, align 4
  %22 = load i32, ptr %9, align 4
  %.not25 = icmp sgt i32 %22, %21
  br i1 %.not25, label %._crit_edge29, label %.lr.ph28

.lr.ph28:                                         ; preds = %17
  %23 = getelementptr inbounds i8, ptr %4, i64 8
  br label %24

24:                                               ; preds = %.lr.ph28, %._crit_edge
  %.026 = phi i32 [ %22, %.lr.ph28 ], [ %55, %._crit_edge ]
  %25 = load i32, ptr %2, align 4
  %26 = load i32, ptr %3, align 4
  invoke void @_Z18getThreadAtomRangeiiiPiS_(i32 noundef %25, i32 noundef %.026, i32 noundef %26, ptr noundef nonnull %13, ptr noundef nonnull %14)
          to label %27 unwind label %46

27:                                               ; preds = %24
  %28 = load i32, ptr %13, align 4
  %29 = load i32, ptr %14, align 4
  %30 = icmp slt i32 %28, %29
  br i1 %30, label %.lr.ph.preheader, label %._crit_edge

.lr.ph.preheader:                                 ; preds = %27
  %31 = sext i32 %28 to i64
  br label %.lr.ph

.lr.ph:                                           ; preds = %.lr.ph.preheader, %_ZN3gmxL15updatePositionsEifPA3_KfPA3_fS2_.exit
  %indvars.iv = phi i64 [ %31, %.lr.ph.preheader ], [ %indvars.iv.next, %_ZN3gmxL15updatePositionsEifPA3_KfPA3_fS2_.exit ]
  %32 = load float, ptr %23, align 8
  %33 = load ptr, ptr %5, align 8
  %34 = load ptr, ptr %6, align 8
  %35 = load ptr, ptr %7, align 8
  call void @llvm.experimental.noalias.scope.decl(metadata !54)
  call void @llvm.experimental.noalias.scope.decl(metadata !57)
  call void @llvm.experimental.noalias.scope.decl(metadata !59)
  br label %36

36:                                               ; preds = %36, %.lr.ph
  %indvars.iv.i = phi i64 [ 0, %.lr.ph ], [ %indvars.iv.next.i, %36 ]
  %37 = getelementptr inbounds [3 x float], ptr %33, i64 %indvars.iv, i64 %indvars.iv.i
  %38 = load float, ptr %37, align 4, !alias.scope !54, !noalias !61
  %39 = getelementptr inbounds [3 x float], ptr %35, i64 %indvars.iv, i64 %indvars.iv.i
  %40 = load float, ptr %39, align 4, !alias.scope !59, !noalias !62
  %41 = call float @llvm.fmuladd.f32(float %40, float %32, float %38)
  %42 = getelementptr inbounds [3 x float], ptr %34, i64 %indvars.iv, i64 %indvars.iv.i
  store float %41, ptr %42, align 4, !alias.scope !57, !noalias !63
  %indvars.iv.next.i = add nuw nsw i64 %indvars.iv.i, 1
  %exitcond.not.i = icmp eq i64 %indvars.iv.next.i, 3
  br i1 %exitcond.not.i, label %_ZN3gmxL15updatePositionsEifPA3_KfPA3_fS2_.exit, label %36, !llvm.loop !16

_ZN3gmxL15updatePositionsEifPA3_KfPA3_fS2_.exit:  ; preds = %36
  %indvars.iv.next = add nsw i64 %indvars.iv, 1
  %43 = load i32, ptr %14, align 4
  %44 = sext i32 %43 to i64
  %45 = icmp slt i64 %indvars.iv.next, %44
  br i1 %45, label %.lr.ph, label %._crit_edge, !llvm.loop !64

46:                                               ; preds = %24
  %47 = landingpad { ptr, i32 }
          catch ptr @_ZTISt9exception
          catch ptr null
  %48 = extractvalue { ptr, i32 } %47, 0
  %49 = extractvalue { ptr, i32 } %47, 1
  %50 = call i32 @llvm.eh.typeid.for(ptr nonnull @_ZTISt9exception) #8
  %51 = icmp eq i32 %49, %50
  br i1 %51, label %52, label %61

52:                                               ; preds = %46
  %53 = call ptr @__cxa_begin_catch(ptr %48) #8
  invoke void @_ZN3gmx28processExceptionAsFatalErrorERKSt9exception(ptr noundef nonnull align 8 dereferenceable(8) %53) #22
          to label %54 unwind label %58

54:                                               ; preds = %52
  unreachable

._crit_edge:                                      ; preds = %_ZN3gmxL15updatePositionsEifPA3_KfPA3_fS2_.exit, %27
  %55 = add nsw i32 %.026, 1
  %56 = load i32, ptr %10, align 4
  %.not.not = icmp slt i32 %.026, %56
  br i1 %.not.not, label %24, label %._crit_edge29

._crit_edge29:                                    ; preds = %._crit_edge, %17
  call void @__kmpc_for_static_fini(ptr nonnull @1, i32 %19)
  br label %57

57:                                               ; preds = %._crit_edge29, %8
  ret void

58:                                               ; preds = %52
  %59 = landingpad { ptr, i32 }
          catch ptr null
  %60 = extractvalue { ptr, i32 } %59, 0
  call void @__clang_call_terminate(ptr %60) #23
  unreachable

61:                                               ; preds = %46
  call void @__clang_call_terminate(ptr %48) #23
  unreachable
}